target datalayout = "e-m:e-p270:32:32-p271:32:32-p272:64:64-i64:64-i128:128-f80:128-n8:16:32:64-S128"
target triple = "x86_64-pc-linux-gnu"

%struct.dict = type { ptr, [2 x ptr], [2 x i64], i64, i16, [2 x i8], i16, [0 x ptr] }
%struct.dictExpireMetadata = type { %struct.ExpireMeta, ptr, ptr }
%struct.ExpireMeta = type { i32, i16, i16, ptr }
%struct.redisObject = type { i32, i32, ptr }
%struct.listpackEx = type { %struct.ExpireMeta, ptr, ptr }

; Function Attrs: inlinehint nounwind uwtable
define internal i32 @isDictWithMetaHFE(ptr noundef %0) #7 {
  %2 = alloca ptr, align 8
  store ptr %0, ptr %2, align 8, !tbaa !5
  %3 = load ptr, ptr %2, align 8, !tbaa !5
  %4 = getelementptr inbounds nuw %struct.dict, ptr %3, i32 0, i32 0
  %5 = load ptr, ptr %4, align 8, !tbaa !128
  %6 = icmp eq ptr %5, @mstrHashDictTypeWithHFE
  %7 = zext i1 %6 to i32
  ret i32 %7
}

; Function Attrs: nounwind uwtable
define dso_local void @hashTypeUpdateKeyRef(ptr noundef %0, ptr noundef %1) #1 {
  %3 = alloca ptr, align 8
  %4 = alloca ptr, align 8
  %5 = alloca ptr, align 8
  %6 = alloca ptr, align 8
  store ptr %0, ptr %3, align 8, !tbaa !15
  store ptr %1, ptr %4, align 8, !tbaa !33
  %7 = load ptr, ptr %3, align 8, !tbaa !15
  %8 = load i32, ptr %7, align 8
  %9 = lshr i32 %8, 4
  %10 = and i32 %9, 15
  %11 = icmp eq i32 %10, 12
  br i1 %11, label %12, label %19

12:                                               ; preds = %2
  call void @llvm.lifetime.start.p0(i64 8, ptr %5) #12
  %13 = load ptr, ptr %3, align 8, !tbaa !15
  %14 = getelementptr inbounds nuw %struct.redisObject, ptr %13, i32 0, i32 2
  %15 = load ptr, ptr %14, align 8, !tbaa !17
  store ptr %15, ptr %5, align 8, !tbaa !19
  %16 = load ptr, ptr %4, align 8, !tbaa !33
  %17 = load ptr, ptr %5, align 8, !tbaa !19
  %18 = getelementptr inbounds nuw %struct.listpackEx, ptr %17, i32 0, i32 1
  store ptr %16, ptr %18, align 8, !tbaa !26
  call void @llvm.lifetime.end.p0(i64 8, ptr %5) #12
  br label %41

19:                                               ; preds = %2
  %20 = load ptr, ptr %3, align 8, !tbaa !15
  %21 = load i32, ptr %20, align 8
  %22 = lshr i32 %21, 4
  %23 = and i32 %22, 15
  %24 = icmp eq i32 %23, 2
  br i1 %24, label %25, label %39

25:                                               ; preds = %19
  %26 = load ptr, ptr %3, align 8, !tbaa !15
  %27 = getelementptr inbounds nuw %struct.redisObject, ptr %26, i32 0, i32 2
  %28 = load ptr, ptr %27, align 8, !tbaa !17
  %29 = call i32 @isDictWithMetaHFE(ptr noundef %28)
  %30 = icmp ne i32 %29, 0
  br i1 %30, label %31, label %39

31:                                               ; preds = %25
  call void @llvm.lifetime.start.p0(i64 8, ptr %6) #12
  %32 = load ptr, ptr %3, align 8, !tbaa !15
  %33 = getelementptr inbounds nuw %struct.redisObject, ptr %32, i32 0, i32 2
  %34 = load ptr, ptr %33, align 8, !tbaa !17
  %35 = getelementptr inbounds nuw %struct.dict, ptr %34, i32 0, i32 7
  store ptr %35, ptr %6, align 8, !tbaa !11
  %36 = load ptr, ptr %4, align 8, !tbaa !33
  %37 = load ptr, ptr %6, align 8, !tbaa !11
  %38 = getelementptr inbounds nuw %struct.dictExpireMetadata, ptr %37, i32 0, i32 2
  store ptr %36, ptr %38, align 8, !tbaa !123
  call void @llvm.lifetime.end.p0(i64 8, ptr %6) #12
  br label %40

39:                                               ; preds = %25, %19
  br label %40

40:                                               ; preds = %39, %31
  br label %41

41:                                               ; preds = %40, %12
  ret void
}