; Function Attrs: mustprogress nofree norecurse nosync nounwind willreturn memory(readwrite, inaccessiblemem: none) uwtable
define dso_local void @hashTypeUpdateKeyRef(ptr noundef readonly captures(none) %0, ptr noundef %1) local_unnamed_addr #9 {
  %3 = load i32, ptr %0, align 8
  %4 = lshr i32 %3, 4
  %5 = and i32 %4, 15
  switch i32 %5, label %15 [
    i32 12, label %6
    i32 2, label %10
  ]

6:                                                ; preds = %2
  %7 = getelementptr inbounds nuw i8, ptr %0, i64 8
  %8 = load ptr, ptr %7, align 8, !tbaa !10
  %9 = getelementptr inbounds nuw i8, ptr %8, i64 16
  store ptr %1, ptr %9, align 8, !tbaa !27
  br label %15

10:                                               ; preds = %2
  %11 = getelementptr inbounds nuw i8, ptr %0, i64 8
  %12 = load ptr, ptr %11, align 8, !tbaa !10
  %.val = load ptr, ptr %12, align 8, !tbaa !56
  %.not = icmp eq ptr %.val, @mstrHashDictTypeWithHFE
  br i1 %.not, label %13, label %15

13:                                               ; preds = %10
  %14 = getelementptr inbounds nuw i8, ptr %12, i64 80
  store ptr %1, ptr %14, align 8, !tbaa !105
  br label %15

15:                                               ; preds = %2, %13, %10, %6
  ret void
}